; Function Attrs: nounwind uwtable
define dso_local noundef range(i32 -1, 256) i32 @finish_command(ptr noundef %0) local_unnamed_addr #3 {
  %2 = getelementptr inbounds nuw i8, ptr %0, i64 48
  %3 = load i32, ptr %2, align 8, !tbaa !62
  %4 = load ptr, ptr %0, align 8, !tbaa !25
  %5 = load ptr, ptr %4, align 8, !tbaa !26
  %6 = tail call fastcc i32 @wait_or_whine(i32 noundef %3, ptr noundef %5, i32 noundef 0)
  tail call void @trace2_child_exit_fl(ptr noundef nonnull @.str, i32 noundef 990, ptr noundef nonnull %0, i32 noundef %6) #21
  tail call void @strvec_clear(ptr noundef nonnull %0) #21
  %7 = getelementptr inbounds nuw i8, ptr %0, i64 24
  tail call void @strvec_clear(ptr noundef nonnull %7) #21
  tail call void @invalidate_lstat_cache() #21
  ret i32 %6
}